(dp0
S's_1'
p1
(dp2
S'u_2'
p3
I21
sS'u_1'
p4
I1
sS'u_0'
p5
I19
sS'u_6'
p6
I28
sS'u_4'
p7
I44
sS'u_9'
p8
I4
ssS's_0'
p9
(dp10
S'u_2'
p11
I16
sS'u_0'
p12
I8
sS'u_7'
p13
I1
sS'u_6'
p14
I1
sS'u_5'
p15
I1
sS'u_4'
p16
I2
sS'u_9'
p17
I20
sS'u_8'
p18
I41
ssS's_3'
p19
(dp20
S'u_3'
p21
I7
sS'u_2'
p22
I84
sS'u_0'
p23
I2
sS'u_7'
p24
I14
sS'u_6'
p25
I1
sS'u_5'
p26
I8
sS'u_4'
p27
I2
sS'u_9'
p28
I23
sS'u_8'
p29
I6
ssS's_2'
p30
(dp31
S'u_3'
p32
I14
sS'u_2'
p33
I43
sS'u_1'
p34
I10
sS'u_7'
p35
I19
sS'u_6'
p36
I3
sS'u_5'
p37
I14
sS'u_9'
p38
I7
ssS's_5'
p39
(dp40
S'u_3'
p41
I30
sS'u_2'
p42
I11
sS'u_1'
p43
I2
sS'u_7'
p44
I4
sS'u_5'
p45
I36
sS'u_9'
p46
I1
sS'u_8'
p47
I1
ssS's_4'
p48
(dp49
S'u_3'
p50
I2
sS'u_2'
p51
I13
sS'u_1'
p52
I8
sS'u_7'
p53
I21
sS'u_5'
p54
I59
ssS's_7'
p55
(dp56
S'u_2'
p57
I42
sS'u_0'
p58
I5
sS'u_7'
p59
I5
sS'u_6'
p60
I3
sS'u_4'
p61
I8
sS'u_9'
p62
I2
ssS's_6'
p63
(dp64
S'u_3'
p65
I36
sS'u_2'
p66
I26
sS'u_1'
p67
I4
sS'u_0'
p68
I1
sS'u_7'
p69
I23
sS'u_5'
p70
I4
sS'u_9'
p71
I3
sS'u_8'
p72
I6
ssS's_9'
p73
(dp74
S'u_2'
p75
I35
sS'u_9'
p76
I5
sS'u_0'
p77
I1
sS'u_6'
p78
I1
ssS's_8'
p79
(dp80
S'u_3'
p81
I4
sS'u_2'
p82
I2
sS'u_7'
p83
I2
ssS'u_3'
p84
(dp85
S's_3'
p86
I1
sS's_2'
p87
I4
sS's_5'
p88
I4
sS's_4'
p89
I84
ssS'u_2'
p90
(dp91
S's_0'
p92
I27
sS's_3'
p93
I57
sS's_2'
p94
I52
sS's_5'
p95
I21
sS's_4'
p96
I7
sS's_7'
p97
I24
sS's_6'
p98
I76
sS's_9'
p99
I24
sS's_8'
p100
I4
ssS'u_1'
p101
(dp102
S's_0'
p103
I1
sS's_3'
p104
I18
sS's_2'
p105
I4
sS's_5'
p106
I1
sS's_6'
p107
I1
ssS'u_0'
p108
(dp109
S's_9'
p110
I4
sS's_0'
p111
I5
sS's_3'
p112
I6
sS's_2'
p113
I5
sS's_7'
p114
I16
ssS'u_7'
p115
(dp116
S's_3'
p117
I5
sS's_2'
p118
I11
sS's_5'
p119
I59
sS's_4'
p120
I11
sS's_7'
p121
I1
sS's_6'
p122
I1
sS's_8'
p123
I1
ssS'u_6'
p124
(dp125
S's_9'
p126
I1
sS's_0'
p127
I8
sS's_3'
p128
I6
sS's_2'
p129
I4
sS's_7'
p130
I18
ssS'u_5'
p131
(dp132
S's_2'
p133
I5
sS's_6'
p134
I1
ssS'u_4'
p135
(dp136
S's_0'
p137
I9
sS's_3'
p138
I38
sS's_2'
p139
I1
sS's_7'
p140
I3
sS's_6'
p141
I5
ssS'u_9'
p142
(dp143
S's_0'
p144
I21
sS's_3'
p145
I11
sS's_2'
p146
I17
sS's_7'
p147
I3
sS's_6'
p148
I6
sS's_9'
p149
I7
ssS'u_8'
p150
(dp151
S's_0'
p152
I19
sS's_3'
p153
I5
sS's_2'
p154
I7
sS's_4'
p155
I1
sS's_6'
p156
I13
sS's_9'
p157
I6
sS's_8'
p158
I3
ss.